target datalayout = "e-m:e-p270:32:32-p271:32:32-p272:64:64-i64:64-i128:128-f80:128-n8:16:32:64-S128"
target triple = "x86_64-pc-linux-gnu"

%struct._YR_COMPILER = type { i32, i32, i32, i32, i32, [1 x %struct.__jmp_buf_tag], ptr, ptr, ptr, ptr, ptr, ptr, ptr, ptr, ptr, ptr, ptr, ptr, ptr, ptr, i32, i32, [4 x ptr], [4 x ptr], i32, i32, i32, [16 x ptr], i32, [16 x ptr], i32, [256 x i8], [1024 x i8], ptr, i16, [1024 x i8], ptr, %struct.rq, %struct.cs, ptr, i32 }
%struct.__jmp_buf_tag = type { [8 x i64], i32, %struct.__sigset_t }
%struct.__sigset_t = type { [16 x i64] }
%struct.rq = type { ptr, ptr }
%struct.cs = type { ptr, ptr }
%struct._yc_string = type { %struct.anon, i32, i32, %union.anon, %union.anon.0, %union.anon.1, i32 }
%struct.anon = type { ptr }
%union.anon = type { ptr }
%union.anon.0 = type { ptr }
%union.anon.1 = type { ptr }

; Function Attrs: nounwind uwtable
define i32 @yr_parser_emit_pushes_for_strings(ptr noundef %0, ptr noundef %1) #0 {
  %3 = alloca ptr, align 8
  %4 = alloca ptr, align 8
  %5 = alloca ptr, align 8
  %6 = alloca ptr, align 8
  %7 = alloca ptr, align 8
  %8 = alloca ptr, align 8
  %9 = alloca i32, align 4
  store ptr %0, ptr %3, align 8, !tbaa !3
  store ptr %1, ptr %4, align 8, !tbaa !27
  call void @llvm.lifetime.start.p0(i64 8, ptr %5) #5
  %10 = load ptr, ptr %3, align 8, !tbaa !3
  %11 = call ptr @yara_yyget_extra(ptr noundef %10)
  store ptr %11, ptr %5, align 8, !tbaa !28
  call void @llvm.lifetime.start.p0(i64 8, ptr %6) #5
  %12 = load ptr, ptr %5, align 8, !tbaa !28
  %13 = getelementptr inbounds nuw %struct._YR_COMPILER, ptr %12, i32 0, i32 19
  %14 = load ptr, ptr %13, align 8, !tbaa !30
  store ptr %14, ptr %6, align 8, !tbaa !31
  call void @llvm.lifetime.start.p0(i64 8, ptr %7) #5
  call void @llvm.lifetime.start.p0(i64 8, ptr %8) #5
  call void @llvm.lifetime.start.p0(i64 4, ptr %9) #5
  store i32 0, ptr %9, align 4, !tbaa !26
  br label %15

15:                                               ; preds = %89, %2
  %16 = load ptr, ptr %6, align 8, !tbaa !31
  %17 = icmp eq ptr %16, null
  br i1 %17, label %24, label %18

18:                                               ; preds = %15
  %19 = load ptr, ptr %6, align 8, !tbaa !31
  %20 = getelementptr inbounds nuw %struct._yc_string, ptr %19, i32 0, i32 1
  %21 = load i32, ptr %20, align 8, !tbaa !32
  %22 = and i32 %21, 4096
  %23 = icmp ne i32 %22, 0
  br label %24

24:                                               ; preds = %18, %15
  %25 = phi i1 [ true, %15 ], [ %23, %18 ]
  %26 = xor i1 %25, true
  br i1 %26, label %27, label %95

27:                                               ; preds = %24
  %28 = load ptr, ptr %6, align 8, !tbaa !31
  %29 = getelementptr inbounds nuw %struct._yc_string, ptr %28, i32 0, i32 5
  %30 = load ptr, ptr %29, align 8, !tbaa !7
  %31 = icmp eq ptr %30, null
  br i1 %31, label %32, label %89

32:                                               ; preds = %27
  %33 = load ptr, ptr %6, align 8, !tbaa !31
  %34 = getelementptr inbounds nuw %struct._yc_string, ptr %33, i32 0, i32 3
  %35 = load ptr, ptr %34, align 8, !tbaa !7
  store ptr %35, ptr %7, align 8, !tbaa !27
  %36 = load ptr, ptr %4, align 8, !tbaa !27
  store ptr %36, ptr %8, align 8, !tbaa !27
  br label %37

37:                                               ; preds = %57, %32
  %38 = load ptr, ptr %8, align 8, !tbaa !27
  %39 = load i8, ptr %38, align 1, !tbaa !7
  %40 = sext i8 %39 to i32
  %41 = icmp ne i32 %40, 0
  br i1 %41, label %42, label %55

42:                                               ; preds = %37
  %43 = load ptr, ptr %7, align 8, !tbaa !27
  %44 = load i8, ptr %43, align 1, !tbaa !7
  %45 = sext i8 %44 to i32
  %46 = icmp ne i32 %45, 0
  br i1 %46, label %47, label %55

47:                                               ; preds = %42
  %48 = load ptr, ptr %8, align 8, !tbaa !27
  %49 = load i8, ptr %48, align 1, !tbaa !7
  %50 = sext i8 %49 to i32
  %51 = load ptr, ptr %7, align 8, !tbaa !27
  %52 = load i8, ptr %51, align 1, !tbaa !7
  %53 = sext i8 %52 to i32
  %54 = icmp eq i32 %50, %53
  br label %55

55:                                               ; preds = %47, %42, %37
  %56 = phi i1 [ false, %42 ], [ false, %37 ], [ %54, %47 ]
  br i1 %56, label %57, label %62

57:                                               ; preds = %55
  %58 = load ptr, ptr %8, align 8, !tbaa !27
  %59 = getelementptr inbounds nuw i8, ptr %58, i32 1
  store ptr %59, ptr %8, align 8, !tbaa !27
  %60 = load ptr, ptr %7, align 8, !tbaa !27
  %61 = getelementptr inbounds nuw i8, ptr %60, i32 1
  store ptr %61, ptr %7, align 8, !tbaa !27
  br label %37

62:                                               ; preds = %55
  %63 = load ptr, ptr %8, align 8, !tbaa !27
  %64 = load i8, ptr %63, align 1, !tbaa !7
  %65 = sext i8 %64 to i32
  %66 = icmp eq i32 %65, 0
  br i1 %66, label %67, label %72

67:                                               ; preds = %62
  %68 = load ptr, ptr %7, align 8, !tbaa !27
  %69 = load i8, ptr %68, align 1, !tbaa !7
  %70 = sext i8 %69 to i32
  %71 = icmp eq i32 %70, 0
  br i1 %71, label %77, label %72

72:                                               ; preds = %67, %62
  %73 = load ptr, ptr %8, align 8, !tbaa !27
  %74 = load i8, ptr %73, align 1, !tbaa !7
  %75 = sext i8 %74 to i32
  %76 = icmp eq i32 %75, 42
  br i1 %76, label %77, label %88

77:                                               ; preds = %72, %67
  %78 = load ptr, ptr %3, align 8, !tbaa !3
  %79 = load ptr, ptr %6, align 8, !tbaa !31
  %80 = ptrtoint ptr %79 to i64
  %81 = call i32 @yr_parser_emit_with_arg_reloc(ptr noundef %78, i8 noundef signext 22, i64 noundef %80, ptr noundef null)
  %82 = load ptr, ptr %6, align 8, !tbaa !31
  %83 = getelementptr inbounds nuw %struct._yc_string, ptr %82, i32 0, i32 1
  %84 = load i32, ptr %83, align 8, !tbaa !32
  %85 = or i32 %84, 1
  store i32 %85, ptr %83, align 8, !tbaa !32
  %86 = load i32, ptr %9, align 4, !tbaa !26
  %87 = add nsw i32 %86, 1
  store i32 %87, ptr %9, align 4, !tbaa !26
  br label %88

88:                                               ; preds = %77, %72
  br label %89

89:                                               ; preds = %88, %27
  %90 = load ptr, ptr %5, align 8, !tbaa !28
  %91 = getelementptr inbounds nuw %struct._YR_COMPILER, ptr %90, i32 0, i32 8
  %92 = load ptr, ptr %91, align 8, !tbaa !35
  %93 = load ptr, ptr %6, align 8, !tbaa !31
  %94 = call ptr @yr_arena_next_address(ptr noundef %92, ptr noundef %93, i64 noundef 48)
  store ptr %94, ptr %6, align 8, !tbaa !31
  br label %15

95:                                               ; preds = %24
  %96 = load i32, ptr %9, align 4, !tbaa !26
  %97 = icmp eq i32 %96, 0
  br i1 %97, label %98, label %106

98:                                               ; preds = %95
  %99 = load ptr, ptr %5, align 8, !tbaa !28
  %100 = getelementptr inbounds nuw %struct._YR_COMPILER, ptr %99, i32 0, i32 31
  %101 = getelementptr inbounds [256 x i8], ptr %100, i64 0, i64 0
  %102 = load ptr, ptr %4, align 8, !tbaa !27
  %103 = call i64 @cli_strlcpy(ptr noundef %101, ptr noundef %102, i64 noundef 256)
  %104 = load ptr, ptr %5, align 8, !tbaa !28
  %105 = getelementptr inbounds nuw %struct._YR_COMPILER, ptr %104, i32 0, i32 4
  store i32 19, ptr %105, align 8, !tbaa !36
  br label %106

106:                                              ; preds = %98, %95
  %107 = load ptr, ptr %5, align 8, !tbaa !28
  %108 = getelementptr inbounds nuw %struct._YR_COMPILER, ptr %107, i32 0, i32 4
  %109 = load i32, ptr %108, align 8, !tbaa !36
  call void @llvm.lifetime.end.p0(i64 4, ptr %9) #5
  call void @llvm.lifetime.end.p0(i64 8, ptr %8) #5
  call void @llvm.lifetime.end.p0(i64 8, ptr %7) #5
  call void @llvm.lifetime.end.p0(i64 8, ptr %6) #5
  call void @llvm.lifetime.end.p0(i64 8, ptr %5) #5
  ret i32 %109
}