; Function Attrs: nounwind uwtable
define i32 @yr_parser_emit_pushes_for_strings(ptr noundef %0, ptr noundef %1) local_unnamed_addr #0 {
  %3 = tail call ptr @yara_yyget_extra(ptr noundef %0) #6
  %4 = getelementptr inbounds nuw i8, ptr %3, i64 328
  %5 = load ptr, ptr %4, align 8, !tbaa !24
  %6 = icmp eq ptr %5, null
  br i1 %6, label %.critedge33.thread, label %.lr.ph43

.lr.ph43:                                         ; preds = %2
  %7 = getelementptr inbounds nuw i8, ptr %3, i64 240
  br label %8

8:                                                ; preds = %.lr.ph43, %.critedge.thread34
  %.041 = phi i32 [ 0, %.lr.ph43 ], [ %.1, %.critedge.thread34 ]
  %.02840 = phi ptr [ %5, %.lr.ph43 ], [ %38, %.critedge.thread34 ]
  %9 = getelementptr inbounds nuw i8, ptr %.02840, i64 8
  %10 = load i32, ptr %9, align 8, !tbaa !25
  %11 = and i32 %10, 4096
  %12 = icmp eq i32 %11, 0
  br i1 %12, label %13, label %.critedge33

13:                                               ; preds = %8
  %14 = getelementptr inbounds nuw i8, ptr %.02840, i64 32
  %15 = load ptr, ptr %14, align 8, !tbaa !3
  %16 = icmp eq ptr %15, null
  br i1 %16, label %17, label %.critedge.thread34

17:                                               ; preds = %13
  %18 = getelementptr inbounds nuw i8, ptr %.02840, i64 16
  %19 = load ptr, ptr %18, align 8, !tbaa !3
  %20 = load i8, ptr %1, align 1, !tbaa !3
  %.not37 = icmp eq i8 %20, 0
  br i1 %.not37, label %._crit_edge, label %.lr.ph

.lr.ph:                                           ; preds = %17, %24
  %21 = phi i8 [ %27, %24 ], [ %20, %17 ]
  %.02639 = phi ptr [ %25, %24 ], [ %1, %17 ]
  %.02738 = phi ptr [ %26, %24 ], [ %19, %17 ]
  %22 = load i8, ptr %.02738, align 1, !tbaa !3
  %23 = icmp eq i8 %21, %22
  br i1 %23, label %24, label %.critedge

24:                                               ; preds = %.lr.ph
  %25 = getelementptr inbounds nuw i8, ptr %.02639, i64 1
  %26 = getelementptr inbounds nuw i8, ptr %.02738, i64 1
  %27 = load i8, ptr %25, align 1, !tbaa !3
  %.not = icmp eq i8 %27, 0
  br i1 %.not, label %._crit_edge, label %.lr.ph

._crit_edge:                                      ; preds = %24, %17
  %.027.lcssa = phi ptr [ %19, %17 ], [ %26, %24 ]
  %28 = load i8, ptr %.027.lcssa, align 1, !tbaa !3
  %29 = icmp eq i8 %28, 0
  br i1 %29, label %31, label %.critedge.thread34

.critedge:                                        ; preds = %.lr.ph
  %30 = icmp eq i8 %21, 42
  br i1 %30, label %31, label %.critedge.thread34

31:                                               ; preds = %.critedge, %._crit_edge
  %32 = ptrtoint ptr %.02840 to i64
  %33 = tail call i32 @yr_parser_emit_with_arg_reloc(ptr noundef %0, i8 noundef signext 22, i64 noundef %32, ptr noundef null)
  %34 = load i32, ptr %9, align 8, !tbaa !25
  %35 = or i32 %34, 1
  store i32 %35, ptr %9, align 8, !tbaa !25
  %36 = add nsw i32 %.041, 1
  br label %.critedge.thread34

.critedge.thread34:                               ; preds = %._crit_edge, %.critedge, %31, %13
  %.1 = phi i32 [ %36, %31 ], [ %.041, %.critedge ], [ %.041, %13 ], [ %.041, %._crit_edge ]
  %37 = load ptr, ptr %7, align 8, !tbaa !28
  %38 = tail call ptr @yr_arena_next_address(ptr noundef %37, ptr noundef nonnull %.02840, i64 noundef 48) #6
  %39 = icmp eq ptr %38, null
  br i1 %39, label %.critedge33, label %8

.critedge33:                                      ; preds = %8, %.critedge.thread34
  %.0.lcssa.ph = phi i32 [ %.041, %8 ], [ %.1, %.critedge.thread34 ]
  %40 = icmp eq i32 %.0.lcssa.ph, 0
  br i1 %40, label %.critedge33.thread, label %.critedge33._crit_edge

.critedge33._crit_edge:                           ; preds = %.critedge33
  %.phi.trans.insert = getelementptr inbounds nuw i8, ptr %3, i64 16
  %.pre = load i32, ptr %.phi.trans.insert, align 8, !tbaa !29
  br label %44

.critedge33.thread:                               ; preds = %2, %.critedge33
  %41 = getelementptr inbounds nuw i8, ptr %3, i64 692
  %42 = tail call i64 @cli_strlcpy(ptr noundef nonnull %41, ptr noundef %1, i64 noundef 256) #6
  %43 = getelementptr inbounds nuw i8, ptr %3, i64 16
  store i32 19, ptr %43, align 8, !tbaa !29
  br label %44

44:                                               ; preds = %.critedge33._crit_edge, %.critedge33.thread
  %45 = phi i32 [ %.pre, %.critedge33._crit_edge ], [ 19, %.critedge33.thread ]
  ret i32 %45
}